target datalayout = "e-m:e-p270:32:32-p271:32:32-p272:64:64-i64:64-i128:128-f80:128-n8:16:32:64-S128"
target triple = "x86_64-pc-linux-gnu"

%struct.H5VL_loc_params_t = type { i32, i32, %union.anon }
%union.anon = type { %struct.H5VL_loc_by_idx }
%struct.H5VL_loc_by_idx = type { ptr, i32, i32, i64, i64 }
%struct.H5O_info2_t = type { i64, %struct.H5O_token_t, i32, i32, i64, i64, i64, i64, i64 }
%struct.H5O_token_t = type { [16 x i8] }
%struct.H5VL_object_get_args_t = type { i32, %union.anon.15 }
%union.anon.15 = type { %struct.anon.17 }
%struct.anon.17 = type { i64, ptr, ptr }
%struct.anon.19 = type { i32, ptr }

@H5_libinit_g = external global i8, align 1
@H5_libterm_g = external global i8, align 1
@.str = private unnamed_addr constant [103 x i8] c"generated/home/dtcxzyw/WorkSpace/Projects/compilers/llvm-opt-benchmark/bench/hdf5/hdf5/src/H5Gdeprec.c\00", align 1
@H5E_FUNC_g = external global i64, align 8
@H5E_CANTINIT_g = external global i64, align 8
@.str.1 = private unnamed_addr constant [30 x i8] c"library initialization failed\00", align 1
@H5E_CANTSET_g = external global i64, align 8
@.str.2 = private unnamed_addr constant [22 x i8] c"can't set API context\00", align 1
@H5E_ARGS_g = external global i64, align 8
@H5E_BADTYPE_g = external global i64, align 8
@H5E_SYM_g = external global i64, align 8
@.str.11 = private unnamed_addr constant [28 x i8] c"invalid location identifier\00", align 1
@H5P_LST_DATASET_XFER_ID_g = external global i64, align 8
@H5P_LST_LINK_ACCESS_ID_g = external global i64, align 8
@.str.41 = private unnamed_addr constant [2 x i8] c".\00", align 1
@__func__.H5Gget_objtype_by_idx = private unnamed_addr constant [22 x i8] c"H5Gget_objtype_by_idx\00", align 1
@.str.43 = private unnamed_addr constant [22 x i8] c"can't get object info\00", align 1
@.str.44 = private unnamed_addr constant [28 x i8] c"can't determine object type\00", align 1

; Function Attrs: nounwind uwtable
define i32 @H5G_map_obj_type(i32 noundef %0) #0 {
  %2 = alloca i32, align 4
  %3 = alloca i32, align 4
  store i32 %0, ptr %2, align 4
  store i32 -1, ptr %3, align 4
  %4 = load i32, ptr %2, align 4
  switch i32 %4, label %9 [
    i32 0, label %5
    i32 1, label %6
    i32 2, label %7
    i32 3, label %8
    i32 -1, label %8
    i32 4, label %8
  ]

5:                                                ; preds = %1
  store i32 0, ptr %3, align 4
  br label %10

6:                                                ; preds = %1
  store i32 1, ptr %3, align 4
  br label %10

7:                                                ; preds = %1
  store i32 2, ptr %3, align 4
  br label %10

8:                                                ; preds = %1, %1, %1
  br label %9

9:                                                ; preds = %8, %1
  store i32 -1, ptr %3, align 4
  br label %10

10:                                               ; preds = %9, %7, %6, %5
  %11 = load i32, ptr %3, align 4
  ret i32 %11
}

; Function Attrs: nounwind uwtable
define i32 @H5Gget_objtype_by_idx(i64 noundef %0, i64 noundef %1) #0 {
  %3 = alloca i64, align 8
  %4 = alloca i64, align 8
  %5 = alloca ptr, align 8
  %6 = alloca %struct.H5VL_object_get_args_t, align 8
  %7 = alloca %struct.H5VL_loc_params_t, align 8
  %8 = alloca %struct.H5O_info2_t, align 8
  %9 = alloca i32, align 4
  %10 = alloca i8, align 1
  %11 = alloca i8, align 1
  store i64 %0, ptr %3, align 8
  store i64 %1, ptr %4, align 8
  store i8 0, ptr %10, align 1
  store i8 0, ptr %11, align 1
  %12 = load i8, ptr @H5_libinit_g, align 1
  %13 = trunc i8 %12 to i1
  br i1 %13, label %18, label %14

14:                                               ; preds = %2
  %15 = load i8, ptr @H5_libterm_g, align 1
  %16 = trunc i8 %15 to i1
  %17 = xor i1 %16, true
  br label %18

18:                                               ; preds = %14, %2
  %19 = phi i1 [ false, %2 ], [ %17, %14 ]
  %20 = xor i1 %19, true
  %21 = xor i1 %20, true
  %22 = zext i1 %21 to i32
  %23 = sext i32 %22 to i64
  %24 = icmp ne i64 %23, 0
  br i1 %24, label %25, label %49

25:                                               ; preds = %18
  %26 = call i32 @H5_init_library()
  %27 = icmp slt i32 %26, 0
  %28 = xor i1 %27, true
  %29 = xor i1 %28, true
  %30 = zext i1 %29 to i32
  %31 = sext i32 %30 to i64
  %32 = icmp ne i64 %31, 0
  br i1 %32, label %33, label %48

33:                                               ; preds = %25
  br label %34

34:                                               ; preds = %33
  br label %35

35:                                               ; preds = %34
  br label %36

36:                                               ; preds = %35
  %37 = load i64, ptr @H5E_FUNC_g, align 8
  %38 = load i64, ptr @H5E_CANTINIT_g, align 8
  %39 = call i32 (ptr, ptr, i32, i64, i64, ptr, ...) @H5E_printf_stack(ptr noundef @.str, ptr noundef @__func__.H5Gget_objtype_by_idx, i32 noundef 1193, i64 noundef %37, i64 noundef %38, ptr noundef @.str.1)
  br label %40

40:                                               ; preds = %36
  store i8 1, ptr %11, align 1
  %41 = load i8, ptr %11, align 1
  %42 = trunc i8 %41 to i1
  %43 = zext i1 %42 to i8
  store i8 %43, ptr %11, align 1
  br label %44

44:                                               ; preds = %40
  br label %45

45:                                               ; preds = %44
  store i32 -1, ptr %9, align 4
  br label %155

46:                                               ; No predecessors!
  br label %47

47:                                               ; preds = %46
  br label %48

48:                                               ; preds = %47, %25
  br label %49

49:                                               ; preds = %48, %18
  %50 = call i32 @H5CX_push()
  %51 = icmp slt i32 %50, 0
  %52 = xor i1 %51, true
  %53 = xor i1 %52, true
  %54 = zext i1 %53 to i32
  %55 = sext i32 %54 to i64
  %56 = icmp ne i64 %55, 0
  br i1 %56, label %57, label %72

57:                                               ; preds = %49
  br label %58

58:                                               ; preds = %57
  br label %59

59:                                               ; preds = %58
  br label %60

60:                                               ; preds = %59
  %61 = load i64, ptr @H5E_FUNC_g, align 8
  %62 = load i64, ptr @H5E_CANTSET_g, align 8
  %63 = call i32 (ptr, ptr, i32, i64, i64, ptr, ...) @H5E_printf_stack(ptr noundef @.str, ptr noundef @__func__.H5Gget_objtype_by_idx, i32 noundef 1193, i64 noundef %61, i64 noundef %62, ptr noundef @.str.2)
  br label %64

64:                                               ; preds = %60
  store i8 1, ptr %11, align 1
  %65 = load i8, ptr %11, align 1
  %66 = trunc i8 %65 to i1
  %67 = zext i1 %66 to i8
  store i8 %67, ptr %11, align 1
  br label %68

68:                                               ; preds = %64
  br label %69

69:                                               ; preds = %68
  store i32 -1, ptr %9, align 4
  br label %155

70:                                               ; No predecessors!
  br label %71

71:                                               ; preds = %70
  br label %73

72:                                               ; preds = %49
  store i8 1, ptr %10, align 1
  br label %73

73:                                               ; preds = %72, %71
  %74 = call i32 @H5E_clear_stack()
  %75 = getelementptr inbounds %struct.H5VL_loc_params_t, ptr %7, i32 0, i32 1
  store i32 2, ptr %75, align 4
  %76 = getelementptr inbounds %struct.H5VL_loc_params_t, ptr %7, i32 0, i32 2
  %77 = getelementptr inbounds %struct.H5VL_loc_by_idx, ptr %76, i32 0, i32 0
  store ptr @.str.41, ptr %77, align 8
  %78 = getelementptr inbounds %struct.H5VL_loc_params_t, ptr %7, i32 0, i32 2
  %79 = getelementptr inbounds %struct.H5VL_loc_by_idx, ptr %78, i32 0, i32 1
  store i32 0, ptr %79, align 8
  %80 = getelementptr inbounds %struct.H5VL_loc_params_t, ptr %7, i32 0, i32 2
  %81 = getelementptr inbounds %struct.H5VL_loc_by_idx, ptr %80, i32 0, i32 2
  store i32 0, ptr %81, align 4
  %82 = load i64, ptr %4, align 8
  %83 = getelementptr inbounds %struct.H5VL_loc_params_t, ptr %7, i32 0, i32 2
  %84 = getelementptr inbounds %struct.H5VL_loc_by_idx, ptr %83, i32 0, i32 3
  store i64 %82, ptr %84, align 8
  %85 = load i64, ptr @H5P_LST_LINK_ACCESS_ID_g, align 8
  %86 = getelementptr inbounds %struct.H5VL_loc_params_t, ptr %7, i32 0, i32 2
  %87 = getelementptr inbounds %struct.H5VL_loc_by_idx, ptr %86, i32 0, i32 4
  store i64 %85, ptr %87, align 8
  %88 = load i64, ptr %3, align 8
  %89 = call i32 @H5I_get_type(i64 noundef %88)
  %90 = getelementptr inbounds %struct.H5VL_loc_params_t, ptr %7, i32 0, i32 0
  store i32 %89, ptr %90, align 8
  %91 = load i64, ptr %3, align 8
  %92 = call ptr @H5VL_vol_object(i64 noundef %91)
  store ptr %92, ptr %5, align 8
  %93 = icmp eq ptr null, %92
  br i1 %93, label %94, label %109

94:                                               ; preds = %73
  br label %95

95:                                               ; preds = %94
  br label %96

96:                                               ; preds = %95
  br label %97

97:                                               ; preds = %96
  %98 = load i64, ptr @H5E_ARGS_g, align 8
  %99 = load i64, ptr @H5E_BADTYPE_g, align 8
  %100 = call i32 (ptr, ptr, i32, i64, i64, ptr, ...) @H5E_printf_stack(ptr noundef @.str, ptr noundef @__func__.H5Gget_objtype_by_idx, i32 noundef 1206, i64 noundef %98, i64 noundef %99, ptr noundef @.str.11)
  br label %101

101:                                              ; preds = %97
  store i8 1, ptr %11, align 1
  %102 = load i8, ptr %11, align 1
  %103 = trunc i8 %102 to i1
  %104 = zext i1 %103 to i8
  store i8 %104, ptr %11, align 1
  br label %105

105:                                              ; preds = %101
  br label %106

106:                                              ; preds = %105
  store i32 -1, ptr %9, align 4
  br label %155

107:                                              ; No predecessors!
  br label %108

108:                                              ; preds = %107
  br label %109

109:                                              ; preds = %108, %73
  %110 = getelementptr inbounds %struct.H5VL_object_get_args_t, ptr %6, i32 0, i32 0
  store i32 3, ptr %110, align 8
  %111 = getelementptr inbounds %struct.H5VL_object_get_args_t, ptr %6, i32 0, i32 1
  %112 = getelementptr inbounds %struct.anon.19, ptr %111, i32 0, i32 1
  store ptr %8, ptr %112, align 8
  %113 = getelementptr inbounds %struct.H5VL_object_get_args_t, ptr %6, i32 0, i32 1
  %114 = getelementptr inbounds %struct.anon.19, ptr %113, i32 0, i32 0
  store i32 1, ptr %114, align 8
  %115 = load ptr, ptr %5, align 8
  %116 = load i64, ptr @H5P_LST_DATASET_XFER_ID_g, align 8
  %117 = call i32 @H5VL_object_get(ptr noundef %115, ptr noundef %7, ptr noundef %6, i64 noundef %116, ptr noundef null)
  %118 = icmp slt i32 %117, 0
  br i1 %118, label %119, label %134

119:                                              ; preds = %109
  br label %120

120:                                              ; preds = %119
  br label %121

121:                                              ; preds = %120
  br label %122

122:                                              ; preds = %121
  %123 = load i64, ptr @H5E_SYM_g, align 8
  %124 = load i64, ptr @H5E_BADTYPE_g, align 8
  %125 = call i32 (ptr, ptr, i32, i64, i64, ptr, ...) @H5E_printf_stack(ptr noundef @.str, ptr noundef @__func__.H5Gget_objtype_by_idx, i32 noundef 1215, i64 noundef %123, i64 noundef %124, ptr noundef @.str.43)
  br label %126

126:                                              ; preds = %122
  store i8 1, ptr %11, align 1
  %127 = load i8, ptr %11, align 1
  %128 = trunc i8 %127 to i1
  %129 = zext i1 %128 to i8
  store i8 %129, ptr %11, align 1
  br label %130

130:                                              ; preds = %126
  br label %131

131:                                              ; preds = %130
  store i32 -1, ptr %9, align 4
  br label %155

132:                                              ; No predecessors!
  br label %133

133:                                              ; preds = %132
  br label %134

134:                                              ; preds = %133, %109
  %135 = getelementptr inbounds %struct.H5O_info2_t, ptr %8, i32 0, i32 2
  %136 = load i32, ptr %135, align 8
  %137 = call i32 @H5G_map_obj_type(i32 noundef %136)
  store i32 %137, ptr %9, align 4
  %138 = icmp eq i32 -1, %137
  br i1 %138, label %139, label %154

139:                                              ; preds = %134
  br label %140

140:                                              ; preds = %139
  br label %141

141:                                              ; preds = %140
  br label %142

142:                                              ; preds = %141
  %143 = load i64, ptr @H5E_SYM_g, align 8
  %144 = load i64, ptr @H5E_BADTYPE_g, align 8
  %145 = call i32 (ptr, ptr, i32, i64, i64, ptr, ...) @H5E_printf_stack(ptr noundef @.str, ptr noundef @__func__.H5Gget_objtype_by_idx, i32 noundef 1219, i64 noundef %143, i64 noundef %144, ptr noundef @.str.44)
  br label %146

146:                                              ; preds = %142
  store i8 1, ptr %11, align 1
  %147 = load i8, ptr %11, align 1
  %148 = trunc i8 %147 to i1
  %149 = zext i1 %148 to i8
  store i8 %149, ptr %11, align 1
  br label %150

150:                                              ; preds = %146
  br label %151

151:                                              ; preds = %150
  store i32 -1, ptr %9, align 4
  br label %155

152:                                              ; No predecessors!
  br label %153

153:                                              ; preds = %152
  br label %154

154:                                              ; preds = %153, %134
  br label %155

155:                                              ; preds = %154, %151, %131, %106, %69, %45
  %156 = load i8, ptr %10, align 1
  %157 = trunc i8 %156 to i1
  %158 = xor i1 %157, true
  %159 = xor i1 %158, true
  %160 = zext i1 %159 to i32
  %161 = sext i32 %160 to i64
  %162 = icmp ne i64 %161, 0
  br i1 %162, label %163, label %165

163:                                              ; preds = %155
  %164 = call i32 @H5CX_pop(i1 noundef zeroext true)
  store i8 0, ptr %10, align 1
  br label %165

165:                                              ; preds = %163, %155
  %166 = load i8, ptr %11, align 1
  %167 = trunc i8 %166 to i1
  %168 = xor i1 %167, true
  %169 = xor i1 %168, true
  %170 = zext i1 %169 to i32
  %171 = sext i32 %170 to i64
  %172 = icmp ne i64 %171, 0
  br i1 %172, label %173, label %175

173:                                              ; preds = %165
  %174 = call i32 @H5E_dump_api_stack()
  br label %175

175:                                              ; preds = %173, %165
  %176 = load i32, ptr %9, align 4
  ret i32 %176
}