; Function Attrs: nounwind uwtable
define range(i32 -1, 3) i32 @H5Gget_objtype_by_idx(i64 noundef %0, i64 noundef %1) local_unnamed_addr #1 {
  %3 = alloca %struct.H5VL_object_get_args_t, align 8
  %4 = alloca %struct.H5VL_loc_params_t, align 8
  %5 = alloca %struct.H5O_info2_t, align 8
  %6 = load i8, ptr @H5_libinit_g, align 1
  %7 = trunc i8 %6 to i1
  %8 = load i8, ptr @H5_libterm_g, align 1
  %9 = trunc i8 %8 to i1
  %10 = select i1 %7, i1 true, i1 %9
  br i1 %10, label %18, label %11

11:                                               ; preds = %2
  %12 = tail call i32 @H5_init_library() #4
  %13 = icmp slt i32 %12, 0
  br i1 %13, label %14, label %18

14:                                               ; preds = %11
  %15 = load i64, ptr @H5E_FUNC_g, align 8
  %16 = load i64, ptr @H5E_CANTINIT_g, align 8
  %17 = tail call i32 (ptr, ptr, i32, i64, i64, ptr, ...) @H5E_printf_stack(ptr noundef nonnull @.str, ptr noundef nonnull @__func__.H5Gget_objtype_by_idx, i32 noundef 1193, i64 noundef %15, i64 noundef %16, ptr noundef nonnull @.str.1) #4
  br label %.thread24

18:                                               ; preds = %11, %2
  %19 = tail call i32 @H5CX_push() #4
  %20 = icmp slt i32 %19, 0
  br i1 %20, label %21, label %25

21:                                               ; preds = %18
  %22 = load i64, ptr @H5E_FUNC_g, align 8
  %23 = load i64, ptr @H5E_CANTSET_g, align 8
  %24 = tail call i32 (ptr, ptr, i32, i64, i64, ptr, ...) @H5E_printf_stack(ptr noundef nonnull @.str, ptr noundef nonnull @__func__.H5Gget_objtype_by_idx, i32 noundef 1193, i64 noundef %22, i64 noundef %23, ptr noundef nonnull @.str.2) #4
  br label %.thread24

25:                                               ; preds = %18
  %26 = tail call i32 @H5E_clear_stack() #4
  %27 = getelementptr inbounds i8, ptr %4, i64 4
  store i32 2, ptr %27, align 4
  %28 = getelementptr inbounds i8, ptr %4, i64 8
  store ptr @.str.41, ptr %28, align 8
  %29 = getelementptr inbounds i8, ptr %4, i64 16
  store i32 0, ptr %29, align 8
  %30 = getelementptr inbounds i8, ptr %4, i64 20
  store i32 0, ptr %30, align 4
  %31 = getelementptr inbounds i8, ptr %4, i64 24
  store i64 %1, ptr %31, align 8
  %32 = load i64, ptr @H5P_LST_LINK_ACCESS_ID_g, align 8
  %33 = getelementptr inbounds i8, ptr %4, i64 32
  store i64 %32, ptr %33, align 8
  %34 = tail call i32 @H5I_get_type(i64 noundef %0) #4
  store i32 %34, ptr %4, align 8
  %35 = tail call ptr @H5VL_vol_object(i64 noundef %0) #4
  %36 = icmp eq ptr %35, null
  br i1 %36, label %37, label %41

37:                                               ; preds = %25
  %38 = load i64, ptr @H5E_ARGS_g, align 8
  %39 = load i64, ptr @H5E_BADTYPE_g, align 8
  %40 = tail call i32 (ptr, ptr, i32, i64, i64, ptr, ...) @H5E_printf_stack(ptr noundef nonnull @.str, ptr noundef nonnull @__func__.H5Gget_objtype_by_idx, i32 noundef 1206, i64 noundef %38, i64 noundef %39, ptr noundef nonnull @.str.11) #4
  br label %.thread30

41:                                               ; preds = %25
  store i32 3, ptr %3, align 8
  %42 = getelementptr inbounds i8, ptr %3, i64 8
  %43 = getelementptr inbounds i8, ptr %3, i64 16
  store ptr %5, ptr %43, align 8
  store i32 1, ptr %42, align 8
  %44 = load i64, ptr @H5P_LST_DATASET_XFER_ID_g, align 8
  %45 = call i32 @H5VL_object_get(ptr noundef nonnull %35, ptr noundef nonnull %4, ptr noundef nonnull %3, i64 noundef %44, ptr noundef null) #4
  %46 = icmp slt i32 %45, 0
  br i1 %46, label %47, label %51

47:                                               ; preds = %41
  %48 = load i64, ptr @H5E_SYM_g, align 8
  %49 = load i64, ptr @H5E_BADTYPE_g, align 8
  %50 = call i32 (ptr, ptr, i32, i64, i64, ptr, ...) @H5E_printf_stack(ptr noundef nonnull @.str, ptr noundef nonnull @__func__.H5Gget_objtype_by_idx, i32 noundef 1215, i64 noundef %48, i64 noundef %49, ptr noundef nonnull @.str.43) #4
  br label %.thread30

51:                                               ; preds = %41
  %52 = getelementptr inbounds i8, ptr %5, i64 24
  %53 = load i32, ptr %52, align 8
  %switch = icmp ult i32 %53, 3
  br i1 %switch, label %58, label %H5G_map_obj_type.exit

H5G_map_obj_type.exit:                            ; preds = %51
  %54 = load i64, ptr @H5E_SYM_g, align 8
  %55 = load i64, ptr @H5E_BADTYPE_g, align 8
  %56 = call i32 (ptr, ptr, i32, i64, i64, ptr, ...) @H5E_printf_stack(ptr noundef nonnull @.str, ptr noundef nonnull @__func__.H5Gget_objtype_by_idx, i32 noundef 1219, i64 noundef %54, i64 noundef %55, ptr noundef nonnull @.str.44) #4
  br label %.thread30

.thread30:                                        ; preds = %H5G_map_obj_type.exit, %47, %37
  %57 = call i32 @H5CX_pop(i1 noundef zeroext true) #4
  br label %.thread24

58:                                               ; preds = %51
  %59 = call i32 @H5CX_pop(i1 noundef zeroext true) #4
  br label %61

.thread24:                                        ; preds = %21, %14, %.thread30
  %60 = call i32 @H5E_dump_api_stack() #4
  br label %61

61:                                               ; preds = %58, %.thread24
  %.0121927 = phi i32 [ -1, %.thread24 ], [ %53, %58 ]
  ret i32 %.0121927
}